; ModuleID = '53/962.c'
source_filename = "53/962.c"
target datalayout = "e-m:e-p270:32:32-p271:32:32-p272:64:64-i64:64-f80:128-n8:16:32:64-S128"
target triple = "x86_64-pc-linux-gnu"

@.str = private unnamed_addr constant [3 x i8] c"%d\00", align 1
@.str.1 = private unnamed_addr constant [4 x i8] c"%d,\00", align 1

; Function Attrs: noinline nounwind uwtable
define dso_local i32 @main() #0 {
  %1 = alloca i32, align 4
  %2 = alloca i32, align 4
  %3 = alloca i32, align 4
  %4 = alloca i32, align 4
  %5 = alloca i32, align 4
  %6 = alloca i32, align 4
  %7 = alloca [300 x i32], align 16
  %8 = alloca [300 x i32], align 16
  %9 = alloca [300 x i32], align 16
  %10 = alloca i32, align 4
  %11 = alloca i32, align 4
  %12 = alloca i32, align 4
  store i32 0, i32* %1, align 4
  store i32 0, i32* %10, align 4
  store i32 0, i32* %11, align 4
  %13 = call i32 (i8*, ...) @__isoc99_scanf(i8* getelementptr inbounds ([3 x i8], [3 x i8]* @.str, i64 0, i64 0), i32* %2)
  store i32 0, i32* %3, align 4
  br label %14

14:                                               ; preds = %23, %0
  %15 = load i32, i32* %3, align 4
  %16 = load i32, i32* %2, align 4
  %17 = icmp slt i32 %15, %16
  br i1 %17, label %18, label %26

18:                                               ; preds = %14
  %19 = load i32, i32* %3, align 4
  %20 = sext i32 %19 to i64
  %21 = getelementptr inbounds [300 x i32], [300 x i32]* %7, i64 0, i64 %20
  %22 = call i32 (i8*, ...) @__isoc99_scanf(i8* getelementptr inbounds ([3 x i8], [3 x i8]* @.str, i64 0, i64 0), i32* %21)
  br label %23

23:                                               ; preds = %18
  %24 = load i32, i32* %3, align 4
  %25 = add nsw i32 %24, 1
  store i32 %25, i32* %3, align 4
  br label %14

26:                                               ; preds = %14
  store i32 0, i32* %3, align 4
  br label %27

27:                                               ; preds = %66, %26
  %28 = load i32, i32* %3, align 4
  %29 = load i32, i32* %2, align 4
  %30 = sub nsw i32 %29, 1
  %31 = icmp slt i32 %28, %30
  br i1 %31, label %32, label %69

32:                                               ; preds = %27
  store i32 1, i32* %4, align 4
  br label %33

33:                                               ; preds = %62, %32
  %34 = load i32, i32* %4, align 4
  %35 = load i32, i32* %2, align 4
  %36 = load i32, i32* %3, align 4
  %37 = sub nsw i32 %35, %36
  %38 = icmp slt i32 %34, %37
  br i1 %38, label %39, label %65

39:                                               ; preds = %33
  %40 = load i32, i32* %3, align 4
  %41 = sext i32 %40 to i64
  %42 = getelementptr inbounds [300 x i32], [300 x i32]* %7, i64 0, i64 %41
  %43 = load i32, i32* %42, align 4
  %44 = load i32, i32* %3, align 4
  %45 = load i32, i32* %4, align 4
  %46 = add nsw i32 %44, %45
  %47 = sext i32 %46 to i64
  %48 = getelementptr inbounds [300 x i32], [300 x i32]* %7, i64 0, i64 %47
  %49 = load i32, i32* %48, align 4
  %50 = icmp eq i32 %43, %49
  br i1 %50, label %51, label %60

51:                                               ; preds = %39
  %52 = load i32, i32* %3, align 4
  %53 = load i32, i32* %4, align 4
  %54 = add nsw i32 %52, %53
  %55 = load i32, i32* %10, align 4
  %56 = sext i32 %55 to i64
  %57 = getelementptr inbounds [300 x i32], [300 x i32]* %8, i64 0, i64 %56
  store i32 %54, i32* %57, align 4
  %58 = load i32, i32* %10, align 4
  %59 = add nsw i32 %58, 1
  store i32 %59, i32* %10, align 4
  br label %61

60:                                               ; preds = %39
  br label %62

61:                                               ; preds = %51
  br label %62

62:                                               ; preds = %61, %60
  %63 = load i32, i32* %4, align 4
  %64 = add nsw i32 %63, 1
  store i32 %64, i32* %4, align 4
  br label %33

65:                                               ; preds = %33
  br label %66

66:                                               ; preds = %65
  %67 = load i32, i32* %3, align 4
  %68 = add nsw i32 %67, 1
  store i32 %68, i32* %3, align 4
  br label %27

69:                                               ; preds = %27
  store i32 0, i32* %3, align 4
  br label %70

70:                                               ; preds = %107, %69
  %71 = load i32, i32* %3, align 4
  %72 = load i32, i32* %2, align 4
  %73 = icmp slt i32 %71, %72
  br i1 %73, label %74, label %110

74:                                               ; preds = %70
  store i32 1, i32* %12, align 4
  store i32 0, i32* %5, align 4
  br label %75

75:                                               ; preds = %89, %74
  %76 = load i32, i32* %5, align 4
  %77 = load i32, i32* %10, align 4
  %78 = icmp slt i32 %76, %77
  br i1 %78, label %79, label %92

79:                                               ; preds = %75
  %80 = load i32, i32* %3, align 4
  %81 = load i32, i32* %5, align 4
  %82 = sext i32 %81 to i64
  %83 = getelementptr inbounds [300 x i32], [300 x i32]* %8, i64 0, i64 %82
  %84 = load i32, i32* %83, align 4
  %85 = icmp eq i32 %80, %84
  br i1 %85, label %86, label %87

86:                                               ; preds = %79
  store i32 0, i32* %12, align 4
  br label %88

87:                                               ; preds = %79
  br label %89

88:                                               ; preds = %86
  br label %89

89:                                               ; preds = %88, %87
  %90 = load i32, i32* %5, align 4
  %91 = add nsw i32 %90, 1
  store i32 %91, i32* %5, align 4
  br label %75

92:                                               ; preds = %75
  %93 = load i32, i32* %12, align 4
  %94 = icmp eq i32 %93, 1
  br i1 %94, label %95, label %105

95:                                               ; preds = %92
  %96 = load i32, i32* %3, align 4
  %97 = sext i32 %96 to i64
  %98 = getelementptr inbounds [300 x i32], [300 x i32]* %7, i64 0, i64 %97
  %99 = load i32, i32* %98, align 4
  %100 = load i32, i32* %11, align 4
  %101 = sext i32 %100 to i64
  %102 = getelementptr inbounds [300 x i32], [300 x i32]* %9, i64 0, i64 %101
  store i32 %99, i32* %102, align 4
  %103 = load i32, i32* %11, align 4
  %104 = add nsw i32 %103, 1
  store i32 %104, i32* %11, align 4
  br label %106

105:                                              ; preds = %92
  br label %107

106:                                              ; preds = %95
  br label %107

107:                                              ; preds = %106, %105
  %108 = load i32, i32* %3, align 4
  %109 = add nsw i32 %108, 1
  store i32 %109, i32* %3, align 4
  br label %70

110:                                              ; preds = %70
  store i32 0, i32* %6, align 4
  br label %111

111:                                              ; preds = %122, %110
  %112 = load i32, i32* %6, align 4
  %113 = load i32, i32* %11, align 4
  %114 = sub nsw i32 %113, 1
  %115 = icmp slt i32 %112, %114
  br i1 %115, label %116, label %125

116:                                              ; preds = %111
  %117 = load i32, i32* %6, align 4
  %118 = sext i32 %117 to i64
  %119 = getelementptr inbounds [300 x i32], [300 x i32]* %9, i64 0, i64 %118
  %120 = load i32, i32* %119, align 4
  %121 = call i32 (i8*, ...) @printf(i8* getelementptr inbounds ([4 x i8], [4 x i8]* @.str.1, i64 0, i64 0), i32 %120)
  br label %122

122:                                              ; preds = %116
  %123 = load i32, i32* %6, align 4
  %124 = add nsw i32 %123, 1
  store i32 %124, i32* %6, align 4
  br label %111

125:                                              ; preds = %111
  %126 = load i32, i32* %11, align 4
  %127 = sub nsw i32 %126, 1
  %128 = sext i32 %127 to i64
  %129 = getelementptr inbounds [300 x i32], [300 x i32]* %9, i64 0, i64 %128
  %130 = load i32, i32* %129, align 4
  %131 = call i32 (i8*, ...) @printf(i8* getelementptr inbounds ([3 x i8], [3 x i8]* @.str, i64 0, i64 0), i32 %130)
  ret i32 0
}

declare dso_local i32 @__isoc99_scanf(i8*, ...) #1

declare dso_local i32 @printf(i8*, ...) #1


!llvm.module.flags = !{!0}
!llvm.ident = !{!1}

!0 = !{i32 1, !"wchar_size", i32 4}
!1 = !{!"clang version 10.0.0-4ubuntu1 "}
